; Function Attrs: nofree nounwind uwtable
define internal void @put_demapped_gray(ptr noundef readonly captures(none) %0, ptr noundef readonly captures(none) %1, i32 %2) #4 {
  %4 = getelementptr inbounds nuw i8, ptr %0, i64 160
  %5 = load ptr, ptr %4, align 8, !tbaa !60
  %6 = load ptr, ptr %5, align 8, !tbaa !61
  %7 = getelementptr inbounds nuw i8, ptr %1, i64 72
  %8 = load ptr, ptr %7, align 8, !tbaa !48
  %9 = getelementptr inbounds nuw i8, ptr %0, i64 136
  %10 = load i32, ptr %9, align 8, !tbaa !53
  %.not14 = icmp eq i32 %10, 0
  br i1 %.not14, label %._crit_edge, label %.lr.ph.preheader

.lr.ph.preheader:                                 ; preds = %3
  %11 = getelementptr inbounds nuw i8, ptr %1, i64 40
  %12 = load ptr, ptr %11, align 8, !tbaa !50
  %13 = load ptr, ptr %12, align 8, !tbaa !61
  br label %.lr.ph

.lr.ph:                                           ; preds = %.lr.ph.preheader, %.lr.ph
  %.017 = phi i32 [ %20, %.lr.ph ], [ %10, %.lr.ph.preheader ]
  %.01216 = phi ptr [ %14, %.lr.ph ], [ %13, %.lr.ph.preheader ]
  %.01315 = phi ptr [ %19, %.lr.ph ], [ %8, %.lr.ph.preheader ]
  %14 = getelementptr inbounds nuw i8, ptr %.01216, i64 1
  %15 = load i8, ptr %.01216, align 1, !tbaa !35
  %16 = zext i8 %15 to i64
  %17 = getelementptr inbounds nuw i8, ptr %6, i64 %16
  %18 = load i8, ptr %17, align 1, !tbaa !35
  %19 = getelementptr inbounds nuw i8, ptr %.01315, i64 1
  store i8 %18, ptr %.01315, align 1, !tbaa !35
  %20 = add i32 %.017, -1
  %.not = icmp eq i32 %20, 0
  br i1 %.not, label %._crit_edge.loopexit, label %.lr.ph, !llvm.loop !65

._crit_edge.loopexit:                             ; preds = %.lr.ph
  %.pre = load ptr, ptr %7, align 8, !tbaa !48
  br label %._crit_edge

._crit_edge:                                      ; preds = %._crit_edge.loopexit, %3
  %21 = phi ptr [ %.pre, %._crit_edge.loopexit ], [ %8, %3 ]
  %22 = getelementptr inbounds nuw i8, ptr %1, i64 80
  %23 = load i32, ptr %22, align 8, !tbaa !47
  %24 = zext i32 %23 to i64
  %25 = getelementptr inbounds nuw i8, ptr %1, i64 32
  %26 = load ptr, ptr %25, align 8, !tbaa !59
  %27 = tail call i64 @fwrite(ptr noundef %21, i64 noundef 1, i64 noundef %24, ptr noundef %26)
  ret void
}